target datalayout = "e-m:e-p270:32:32-p271:32:32-p272:64:64-i64:64-i128:128-f80:128-n8:16:32:64-S128"
target triple = "x86_64-pc-linux-gnu"

%struct.expert_field = type { i32, i32 }

@.str.282 = private unnamed_addr constant [1 x i8] zeroinitializer, align 1
@ei_ansi_a_extraneous_data = internal global %struct.expert_field zeroinitializer, align 4

; Function Attrs: null_pointer_is_valid sspstrong uwtable
define internal void @bsmap_bearer_upd_resp(ptr noundef %0, ptr noundef %1, ptr noundef %2, i32 noundef %3, i32 noundef %4, ptr noundef %5) #1 {
  %7 = alloca ptr, align 8
  %8 = alloca ptr, align 8
  %9 = alloca ptr, align 8
  %10 = alloca i32, align 4
  %11 = alloca i32, align 4
  %12 = alloca ptr, align 8
  %13 = alloca i32, align 4
  %14 = alloca i32, align 4
  %15 = alloca i32, align 4
  %16 = alloca i32, align 4
  store ptr %0, ptr %7, align 8
  store ptr %1, ptr %8, align 8
  store ptr %2, ptr %9, align 8
  store i32 %3, ptr %10, align 4
  store i32 %4, ptr %11, align 4
  store ptr %5, ptr %12, align 8
  call void @llvm.lifetime.start.p0(i64 4, ptr %13) #8
  call void @llvm.lifetime.start.p0(i64 4, ptr %14) #8
  call void @llvm.lifetime.start.p0(i64 4, ptr %15) #8
  %17 = load i32, ptr %10, align 4
  store i32 %17, ptr %13, align 4
  %18 = load i32, ptr %11, align 4
  store i32 %18, ptr %15, align 4
  %19 = load ptr, ptr %7, align 8
  %20 = load ptr, ptr %8, align 8
  %21 = load ptr, ptr %9, align 8
  %22 = load i32, ptr %13, align 4
  %23 = load i32, ptr %15, align 4
  %24 = load ptr, ptr %12, align 8
  %25 = call zeroext i16 @elem_tlv(ptr noundef %19, ptr noundef %20, ptr noundef %21, i32 noundef 15, i32 noundef %22, i32 noundef %23, ptr noundef @.str.282, ptr noundef %24)
  %26 = zext i16 %25 to i32
  store i32 %26, ptr %14, align 4
  %27 = icmp ugt i32 %26, 0
  br i1 %27, label %28, label %35

28:                                               ; preds = %6
  %29 = load i32, ptr %14, align 4
  %30 = load i32, ptr %13, align 4
  %31 = add i32 %30, %29
  store i32 %31, ptr %13, align 4
  %32 = load i32, ptr %14, align 4
  %33 = load i32, ptr %15, align 4
  %34 = sub i32 %33, %32
  store i32 %34, ptr %15, align 4
  br label %35

35:                                               ; preds = %28, %6
  %36 = load i32, ptr %15, align 4
  %37 = icmp ule i32 %36, 0
  br i1 %37, label %38, label %39

38:                                               ; preds = %35
  store i32 1, ptr %16, align 4
  br label %97

39:                                               ; preds = %35
  %40 = load ptr, ptr %7, align 8
  %41 = load ptr, ptr %8, align 8
  %42 = load ptr, ptr %9, align 8
  %43 = load i32, ptr %13, align 4
  %44 = load i32, ptr %15, align 4
  %45 = load ptr, ptr %12, align 8
  %46 = call zeroext i16 @elem_tlv(ptr noundef %40, ptr noundef %41, ptr noundef %42, i32 noundef 86, i32 noundef %43, i32 noundef %44, ptr noundef @.str.282, ptr noundef %45)
  %47 = zext i16 %46 to i32
  store i32 %47, ptr %14, align 4
  %48 = icmp ugt i32 %47, 0
  br i1 %48, label %49, label %56

49:                                               ; preds = %39
  %50 = load i32, ptr %14, align 4
  %51 = load i32, ptr %13, align 4
  %52 = add i32 %51, %50
  store i32 %52, ptr %13, align 4
  %53 = load i32, ptr %14, align 4
  %54 = load i32, ptr %15, align 4
  %55 = sub i32 %54, %53
  store i32 %55, ptr %15, align 4
  br label %56

56:                                               ; preds = %49, %39
  %57 = load i32, ptr %15, align 4
  %58 = icmp ule i32 %57, 0
  br i1 %58, label %59, label %60

59:                                               ; preds = %56
  store i32 1, ptr %16, align 4
  br label %97

60:                                               ; preds = %56
  %61 = load ptr, ptr %7, align 8
  %62 = load ptr, ptr %8, align 8
  %63 = load ptr, ptr %9, align 8
  %64 = load i32, ptr %13, align 4
  %65 = load i32, ptr %15, align 4
  %66 = load ptr, ptr %12, align 8
  %67 = call zeroext i16 @elem_tlv(ptr noundef %61, ptr noundef %62, ptr noundef %63, i32 noundef 87, i32 noundef %64, i32 noundef %65, ptr noundef @.str.282, ptr noundef %66)
  %68 = zext i16 %67 to i32
  store i32 %68, ptr %14, align 4
  %69 = icmp ugt i32 %68, 0
  br i1 %69, label %70, label %77

70:                                               ; preds = %60
  %71 = load i32, ptr %14, align 4
  %72 = load i32, ptr %13, align 4
  %73 = add i32 %72, %71
  store i32 %73, ptr %13, align 4
  %74 = load i32, ptr %14, align 4
  %75 = load i32, ptr %15, align 4
  %76 = sub i32 %75, %74
  store i32 %76, ptr %15, align 4
  br label %77

77:                                               ; preds = %70, %60
  %78 = load i32, ptr %15, align 4
  %79 = icmp ule i32 %78, 0
  br i1 %79, label %80, label %81

80:                                               ; preds = %77
  store i32 1, ptr %16, align 4
  br label %97

81:                                               ; preds = %77
  %82 = load i32, ptr %15, align 4
  %83 = icmp ugt i32 %82, 0
  br i1 %83, label %84, label %96

84:                                               ; preds = %81
  %85 = load ptr, ptr %9, align 8
  %86 = load ptr, ptr %8, align 8
  %87 = load ptr, ptr %7, align 8
  %88 = load i32, ptr %13, align 4
  %89 = load i32, ptr %15, align 4
  %90 = sub i32 %89, 0
  %91 = call ptr @proto_tree_add_expert(ptr noundef %85, ptr noundef %86, ptr noundef @ei_ansi_a_extraneous_data, ptr noundef %87, i32 noundef %88, i32 noundef %90)
  %92 = load i32, ptr %15, align 4
  %93 = sub i32 %92, 0
  %94 = load i32, ptr %13, align 4
  %95 = add i32 %94, %93
  store i32 %95, ptr %13, align 4
  br label %96

96:                                               ; preds = %84, %81
  store i32 0, ptr %16, align 4
  br label %97

97:                                               ; preds = %96, %80, %59, %38
  call void @llvm.lifetime.end.p0(i64 4, ptr %15) #8
  call void @llvm.lifetime.end.p0(i64 4, ptr %14) #8
  call void @llvm.lifetime.end.p0(i64 4, ptr %13) #8
  %98 = load i32, ptr %16, align 4
  switch i32 %98, label %100 [
    i32 0, label %99
    i32 1, label %99
  ]

99:                                               ; preds = %97, %97
  ret void

100:                                              ; preds = %97
  unreachable
}